target datalayout = "e-m:e-p270:32:32-p271:32:32-p272:64:64-i64:64-i128:128-f80:128-n8:16:32:64-S128"
target triple = "x86_64-pc-linux-gnu"

%"class.smt::eq_justification" = type { ptr }
%class.ptr_vector.163 = type { %class.vector.164 }
%class.vector.164 = type { ptr }
%"class.smt::enode" = type { ptr, ptr, ptr, ptr, i32, i32, i32, i16, i32, i8, i8, %class.ptr_vector.163, %class.id_var_list, %"struct.smt::trans_justification", %class.approx_set, %class.approx_set, [0 x ptr] }
%class.id_var_list = type { i32, ptr }
%"struct.smt::trans_justification" = type { ptr, %"class.smt::eq_justification" }
%class.approx_set = type { %class.approx_set_tpl }
%class.approx_set_tpl = type { i64 }
%"class.smt::enode::parents" = type { ptr }

; Function Attrs: mustprogress nounwind uwtable
define linkonce_odr hidden noundef i32 @_ZNK6vectorIPN3smt5enodeELb0EjE4sizeEv(ptr noundef nonnull align 8 dereferenceable(8) %0) #4 comdat align 2 {
  %2 = alloca i32, align 4
  %3 = alloca ptr, align 8
  store ptr %0, ptr %3, align 8, !tbaa !574
  %4 = load ptr, ptr %3, align 8
  %5 = getelementptr inbounds nuw %class.vector.164, ptr %4, i32 0, i32 0
  %6 = load ptr, ptr %5, align 8, !tbaa !576
  %7 = icmp eq ptr %6, null
  br i1 %7, label %8, label %9

8:                                                ; preds = %1
  store i32 0, ptr %2, align 4
  br label %14

9:                                                ; preds = %1
  %10 = getelementptr inbounds nuw %class.vector.164, ptr %4, i32 0, i32 0
  %11 = load ptr, ptr %10, align 8, !tbaa !576
  %12 = getelementptr inbounds i32, ptr %11, i64 -1
  %13 = load i32, ptr %12, align 4, !tbaa !8
  store i32 %13, ptr %2, align 4
  br label %14

14:                                               ; preds = %9, %8
  %15 = load i32, ptr %2, align 4
  ret i32 %15
}

; Function Attrs: mustprogress uwtable
define linkonce_odr hidden noundef ptr @_ZN6vectorIPN3smt5enodeELb0EjE3endEv(ptr noundef nonnull align 8 dereferenceable(8) %0) #6 comdat align 2 {
  %2 = alloca ptr, align 8
  store ptr %0, ptr %2, align 8, !tbaa !574
  %3 = load ptr, ptr %2, align 8
  %4 = getelementptr inbounds nuw %class.vector.164, ptr %3, i32 0, i32 0
  %5 = load ptr, ptr %4, align 8, !tbaa !576
  %6 = call noundef i32 @_ZNK6vectorIPN3smt5enodeELb0EjE4sizeEv(ptr noundef nonnull align 8 dereferenceable(8) %3)
  %7 = zext i32 %6 to i64
  %8 = getelementptr inbounds nuw ptr, ptr %5, i64 %7
  ret ptr %8
}

; Function Attrs: mustprogress nounwind uwtable
define linkonce_odr hidden noundef ptr @_ZN6vectorIPN3smt5enodeELb0EjE5beginEv(ptr noundef nonnull align 8 dereferenceable(8) %0) #4 comdat align 2 {
  %2 = alloca ptr, align 8
  store ptr %0, ptr %2, align 8, !tbaa !574
  %3 = load ptr, ptr %2, align 8
  %4 = getelementptr inbounds nuw %class.vector.164, ptr %3, i32 0, i32 0
  %5 = load ptr, ptr %4, align 8, !tbaa !576
  ret ptr %5
}

; Function Attrs: mustprogress uwtable
define linkonce_odr hidden noundef ptr @_ZN3smt5enode11end_parentsEv(ptr noundef nonnull align 8 dereferenceable(112) %0) #6 comdat align 2 {
  %2 = alloca ptr, align 8
  store ptr %0, ptr %2, align 8, !tbaa !573
  %3 = load ptr, ptr %2, align 8
  %4 = getelementptr inbounds nuw %"class.smt::enode", ptr %3, i32 0, i32 11
  %5 = call noundef ptr @_ZN6vectorIPN3smt5enodeELb0EjE3endEv(ptr noundef nonnull align 8 dereferenceable(8) %4)
  ret ptr %5
}

; Function Attrs: mustprogress uwtable
define linkonce_odr hidden noundef ptr @_ZN3smt5enode13begin_parentsEv(ptr noundef nonnull align 8 dereferenceable(112) %0) #6 comdat align 2 {
  %2 = alloca ptr, align 8
  store ptr %0, ptr %2, align 8, !tbaa !573
  %3 = load ptr, ptr %2, align 8
  %4 = getelementptr inbounds nuw %"class.smt::enode", ptr %3, i32 0, i32 11
  %5 = call noundef ptr @_ZN6vectorIPN3smt5enodeELb0EjE5beginEv(ptr noundef nonnull align 8 dereferenceable(8) %4)
  ret ptr %5
}

; Function Attrs: mustprogress nounwind uwtable
define linkonce_odr hidden void @_ZN3smt5enode7parentsC2EPS0_(ptr noundef nonnull align 8 dereferenceable(8) %0, ptr noundef %1) unnamed_addr #4 comdat align 2 {
  %3 = alloca ptr, align 8
  %4 = alloca ptr, align 8
  store ptr %0, ptr %3, align 8, !tbaa !694
  store ptr %1, ptr %4, align 8, !tbaa !573
  %5 = load ptr, ptr %3, align 8
  %6 = getelementptr inbounds nuw %"class.smt::enode::parents", ptr %5, i32 0, i32 0
  %7 = load ptr, ptr %4, align 8, !tbaa !573
  store ptr %7, ptr %6, align 8, !tbaa !573
  ret void
}

; Function Attrs: mustprogress nounwind uwtable
define linkonce_odr hidden noundef zeroext i1 @_ZNK3smt5enode5is_eqEv(ptr noundef nonnull align 8 dereferenceable(112) %0) #4 comdat align 2 {
  %2 = alloca ptr, align 8
  store ptr %0, ptr %2, align 8, !tbaa !573
  %3 = load ptr, ptr %2, align 8
  %4 = getelementptr inbounds nuw %"class.smt::enode", ptr %3, i32 0, i32 7
  %5 = load i16, ptr %4, align 4
  %6 = lshr i16 %5, 4
  %7 = and i16 %6, 1
  %8 = zext i16 %7 to i32
  %9 = icmp ne i32 %8, 0
  ret i1 %9
}

; Function Attrs: mustprogress uwtable
define linkonce_odr hidden noundef ptr @_ZNK3smt5enode7parents3endEv(ptr noundef nonnull align 8 dereferenceable(8) %0) #6 comdat align 2 {
  %2 = alloca ptr, align 8
  store ptr %0, ptr %2, align 8, !tbaa !694
  %3 = load ptr, ptr %2, align 8
  %4 = getelementptr inbounds nuw %"class.smt::enode::parents", ptr %3, i32 0, i32 0
  %5 = load ptr, ptr %4, align 8, !tbaa !696
  %6 = call noundef ptr @_ZN3smt5enode11end_parentsEv(ptr noundef nonnull align 8 dereferenceable(112) %5)
  ret ptr %6
}

; Function Attrs: mustprogress uwtable
define linkonce_odr hidden noundef ptr @_ZNK3smt5enode7parents5beginEv(ptr noundef nonnull align 8 dereferenceable(8) %0) #6 comdat align 2 {
  %2 = alloca ptr, align 8
  store ptr %0, ptr %2, align 8, !tbaa !694
  %3 = load ptr, ptr %2, align 8
  %4 = getelementptr inbounds nuw %"class.smt::enode::parents", ptr %3, i32 0, i32 0
  %5 = load ptr, ptr %4, align 8, !tbaa !696
  %6 = call noundef ptr @_ZN3smt5enode13begin_parentsEv(ptr noundef nonnull align 8 dereferenceable(112) %5)
  ret ptr %6
}

; Function Attrs: mustprogress uwtable
define linkonce_odr hidden ptr @_ZN3smt5enode11get_parentsEv(ptr noundef nonnull align 8 dereferenceable(112) %0) #6 comdat align 2 {
  %2 = alloca %"class.smt::enode::parents", align 8
  %3 = alloca ptr, align 8
  store ptr %0, ptr %3, align 8, !tbaa !573
  %4 = load ptr, ptr %3, align 8
  call void @_ZN3smt5enode7parentsC2EPS0_(ptr noundef nonnull align 8 dereferenceable(8) %2, ptr noundef %4)
  %5 = getelementptr inbounds nuw %"class.smt::enode::parents", ptr %2, i32 0, i32 0
  %6 = load ptr, ptr %5, align 8
  ret ptr %6
}

; Function Attrs: mustprogress uwtable
define hidden void @_ZNK3smt7context18display_parent_eqsERSoPNS_5enodeE(ptr noundef nonnull align 8 dereferenceable(10544) %0, ptr noundef nonnull align 8 dereferenceable(8) %1, ptr noundef %2) #6 align 2 {
  %4 = alloca ptr, align 8
  %5 = alloca ptr, align 8
  %6 = alloca ptr, align 8
  %7 = alloca ptr, align 8
  %8 = alloca %"class.smt::enode::parents", align 8
  %9 = alloca ptr, align 8
  %10 = alloca ptr, align 8
  %11 = alloca ptr, align 8
  store ptr %0, ptr %4, align 8, !tbaa !28
  store ptr %1, ptr %5, align 8, !tbaa !30
  store ptr %2, ptr %6, align 8, !tbaa !573
  %12 = load ptr, ptr %4, align 8
  call void @llvm.lifetime.start.p0(i64 8, ptr %7) #3
  call void @llvm.lifetime.start.p0(i64 8, ptr %8) #3
  %13 = load ptr, ptr %6, align 8, !tbaa !573
  %14 = call ptr @_ZN3smt5enode11get_parentsEv(ptr noundef nonnull align 8 dereferenceable(112) %13)
  %15 = getelementptr inbounds nuw %"class.smt::enode::parents", ptr %8, i32 0, i32 0
  store ptr %14, ptr %15, align 8
  store ptr %8, ptr %7, align 8, !tbaa !694
  call void @llvm.lifetime.start.p0(i64 8, ptr %9) #3
  %16 = load ptr, ptr %7, align 8, !tbaa !694
  %17 = call noundef ptr @_ZNK3smt5enode7parents5beginEv(ptr noundef nonnull align 8 dereferenceable(8) %16)
  store ptr %17, ptr %9, align 8, !tbaa !572
  call void @llvm.lifetime.start.p0(i64 8, ptr %10) #3
  %18 = load ptr, ptr %7, align 8, !tbaa !694
  %19 = call noundef ptr @_ZNK3smt5enode7parents3endEv(ptr noundef nonnull align 8 dereferenceable(8) %18)
  store ptr %19, ptr %10, align 8, !tbaa !572
  br label %20

20:                                               ; preds = %34, %3
  %21 = load ptr, ptr %9, align 8, !tbaa !572
  %22 = load ptr, ptr %10, align 8, !tbaa !572
  %23 = icmp ne ptr %21, %22
  br i1 %23, label %25, label %24

24:                                               ; preds = %20
  call void @llvm.lifetime.end.p0(i64 8, ptr %10) #3
  call void @llvm.lifetime.end.p0(i64 8, ptr %9) #3
  call void @llvm.lifetime.end.p0(i64 8, ptr %8) #3
  call void @llvm.lifetime.end.p0(i64 8, ptr %7) #3
  br label %37

25:                                               ; preds = %20
  call void @llvm.lifetime.start.p0(i64 8, ptr %11) #3
  %26 = load ptr, ptr %9, align 8, !tbaa !572
  %27 = load ptr, ptr %26, align 8, !tbaa !573
  store ptr %27, ptr %11, align 8, !tbaa !573
  %28 = load ptr, ptr %11, align 8, !tbaa !573
  %29 = call noundef zeroext i1 @_ZNK3smt5enode5is_eqEv(ptr noundef nonnull align 8 dereferenceable(112) %28)
  br i1 %29, label %30, label %33

30:                                               ; preds = %25
  %31 = load ptr, ptr %5, align 8, !tbaa !30
  %32 = load ptr, ptr %11, align 8, !tbaa !573
  call void @_ZNK3smt7context17display_eq_detailERSoPNS_5enodeE(ptr noundef nonnull align 8 dereferenceable(10544) %12, ptr noundef nonnull align 8 dereferenceable(8) %31, ptr noundef %32)
  br label %33

33:                                               ; preds = %30, %25
  call void @llvm.lifetime.end.p0(i64 8, ptr %11) #3
  br label %34

34:                                               ; preds = %33
  %35 = load ptr, ptr %9, align 8, !tbaa !572
  %36 = getelementptr inbounds nuw ptr, ptr %35, i32 1
  store ptr %36, ptr %9, align 8, !tbaa !572
  br label %20

37:                                               ; preds = %24
  ret void
}