; Function Attrs: mustprogress uwtable
define hidden void @_ZNK3smt7context18display_parent_eqsERSoPNS_5enodeE(ptr noundef nonnull align 8 dereferenceable(10544) %0, ptr noundef nonnull align 8 dereferenceable(8) %1, ptr noundef readonly captures(none) %2) local_unnamed_addr #4 align 2 {
  %4 = getelementptr inbounds nuw i8, ptr %2, i64 56
  %5 = load ptr, ptr %4, align 8, !tbaa !556
  %6 = icmp eq ptr %5, null
  br i1 %6, label %._crit_edge, label %_ZNK3smt5enode7parents3endEv.exit

_ZNK3smt5enode7parents3endEv.exit:                ; preds = %3
  %7 = getelementptr inbounds i8, ptr %5, i64 -4
  %8 = load i32, ptr %7, align 4, !tbaa !505
  %9 = zext i32 %8 to i64
  %10 = getelementptr inbounds nuw ptr, ptr %5, i64 %9
  %.not13 = icmp eq i32 %8, 0
  br i1 %.not13, label %._crit_edge, label %.lr.ph

._crit_edge:                                      ; preds = %16, %3, %_ZNK3smt5enode7parents3endEv.exit
  ret void

.lr.ph:                                           ; preds = %_ZNK3smt5enode7parents3endEv.exit, %16
  %.014 = phi ptr [ %17, %16 ], [ %5, %_ZNK3smt5enode7parents3endEv.exit ]
  %11 = load ptr, ptr %.014, align 8, !tbaa !557
  %12 = getelementptr inbounds nuw i8, ptr %11, i64 44
  %13 = load i16, ptr %12, align 4
  %14 = and i16 %13, 16
  %.not12 = icmp eq i16 %14, 0
  br i1 %.not12, label %16, label %15

15:                                               ; preds = %.lr.ph
  tail call void @_ZNK3smt7context17display_eq_detailERSoPNS_5enodeE(ptr noundef nonnull align 8 dereferenceable(10544) %0, ptr noundef nonnull align 8 dereferenceable(8) %1, ptr noundef nonnull %11)
  br label %16

16:                                               ; preds = %15, %.lr.ph
  %17 = getelementptr inbounds nuw i8, ptr %.014, i64 8
  %.not = icmp eq ptr %17, %10
  br i1 %.not, label %._crit_edge, label %.lr.ph
}